; Function Attrs: mustprogress uwtable
define internal fastcc void @_ZN4cvc58internal12_GLOBAL__N_17intpow2Ej(ptr noalias align 8 %agg.result, i32 noundef %b) unnamed_addr #3 personality ptr @__gxx_personality_v0 {
entry:
  %ref.tmp = alloca %"class.cvc5::internal::Integer", align 8
  %ref.tmp1 = alloca %"class.cvc5::internal::Integer", align 8
  %ref.tmp2 = alloca %"class.cvc5::internal::Integer", align 8
  call void @__gmpz_init_set_ui(ptr noundef nonnull %ref.tmp1, i64 noundef 2)
  invoke void @_ZNK4cvc58internal7Integer3powEj(ptr nonnull sret(%"class.cvc5::internal::Integer") align 8 %ref.tmp, ptr noundef nonnull align 8 dereferenceable(16) %ref.tmp1, i32 noundef %b)
          to label %invoke.cont unwind label %lpad

invoke.cont:                                      ; preds = %entry
  invoke void @__gmpz_init_set_ui(ptr noundef nonnull %ref.tmp2, i64 noundef 1)
          to label %invoke.cont4 unwind label %lpad3

invoke.cont4:                                     ; preds = %invoke.cont
  invoke void @__gmpz_init_set(ptr noundef nonnull %agg.result, ptr noundef nonnull %ref.tmp)
          to label %.noexc unwind label %lpad5

.noexc:                                           ; preds = %invoke.cont4
  %_mp_den.i.i = getelementptr inbounds i8, ptr %agg.result, i64 16
  invoke void @__gmpz_init_set(ptr noundef nonnull %_mp_den.i.i, ptr noundef nonnull %ref.tmp2)
          to label %.noexc3 unwind label %lpad5

.noexc3:                                          ; preds = %.noexc
  invoke void @__gmpq_canonicalize(ptr noundef nonnull %agg.result)
          to label %invoke.cont6 unwind label %lpad.i

lpad.i:                                           ; preds = %.noexc3
  %0 = landingpad { ptr, i32 }
          cleanup
  invoke void @__gmpq_clear(ptr noundef nonnull %agg.result)
          to label %lpad5.body unwind label %terminate.lpad.i.i

terminate.lpad.i.i:                               ; preds = %lpad.i
  %1 = landingpad { ptr, i32 }
          catch ptr null
  %2 = extractvalue { ptr, i32 } %1, 0
  call void @__clang_call_terminate(ptr %2) #22
  unreachable

invoke.cont6:                                     ; preds = %.noexc3
  invoke void @__gmpz_clear(ptr noundef nonnull %ref.tmp2)
          to label %_ZN4cvc58internal7IntegerD2Ev.exit unwind label %terminate.lpad.i.i4

terminate.lpad.i.i4:                              ; preds = %invoke.cont6
  %3 = landingpad { ptr, i32 }
          catch ptr null
  %4 = extractvalue { ptr, i32 } %3, 0
  call void @__clang_call_terminate(ptr %4) #22
  unreachable

_ZN4cvc58internal7IntegerD2Ev.exit:               ; preds = %invoke.cont6
  invoke void @__gmpz_clear(ptr noundef nonnull %ref.tmp)
          to label %_ZN4cvc58internal7IntegerD2Ev.exit6 unwind label %terminate.lpad.i.i5

terminate.lpad.i.i5:                              ; preds = %_ZN4cvc58internal7IntegerD2Ev.exit
  %5 = landingpad { ptr, i32 }
          catch ptr null
  %6 = extractvalue { ptr, i32 } %5, 0
  call void @__clang_call_terminate(ptr %6) #22
  unreachable

_ZN4cvc58internal7IntegerD2Ev.exit6:              ; preds = %_ZN4cvc58internal7IntegerD2Ev.exit
  invoke void @__gmpz_clear(ptr noundef nonnull %ref.tmp1)
          to label %_ZN4cvc58internal7IntegerD2Ev.exit8 unwind label %terminate.lpad.i.i7

terminate.lpad.i.i7:                              ; preds = %_ZN4cvc58internal7IntegerD2Ev.exit6
  %7 = landingpad { ptr, i32 }
          catch ptr null
  %8 = extractvalue { ptr, i32 } %7, 0
  call void @__clang_call_terminate(ptr %8) #22
  unreachable

_ZN4cvc58internal7IntegerD2Ev.exit8:              ; preds = %_ZN4cvc58internal7IntegerD2Ev.exit6
  ret void

lpad:                                             ; preds = %entry
  %9 = landingpad { ptr, i32 }
          cleanup
  br label %ehcleanup7

lpad3:                                            ; preds = %invoke.cont
  %10 = landingpad { ptr, i32 }
          cleanup
  br label %ehcleanup

lpad5:                                            ; preds = %.noexc, %invoke.cont4
  %11 = landingpad { ptr, i32 }
          cleanup
  br label %lpad5.body

lpad5.body:                                       ; preds = %lpad.i, %lpad5
  %eh.lpad-body = phi { ptr, i32 } [ %11, %lpad5 ], [ %0, %lpad.i ]
  invoke void @__gmpz_clear(ptr noundef nonnull %ref.tmp2)
          to label %ehcleanup unwind label %terminate.lpad.i.i9

terminate.lpad.i.i9:                              ; preds = %lpad5.body
  %12 = landingpad { ptr, i32 }
          catch ptr null
  %13 = extractvalue { ptr, i32 } %12, 0
  call void @__clang_call_terminate(ptr %13) #22
  unreachable

ehcleanup:                                        ; preds = %lpad5.body, %lpad3
  %.pn = phi { ptr, i32 } [ %10, %lpad3 ], [ %eh.lpad-body, %lpad5.body ]
  invoke void @__gmpz_clear(ptr noundef nonnull %ref.tmp)
          to label %ehcleanup7 unwind label %terminate.lpad.i.i11

terminate.lpad.i.i11:                             ; preds = %ehcleanup
  %14 = landingpad { ptr, i32 }
          catch ptr null
  %15 = extractvalue { ptr, i32 } %14, 0
  call void @__clang_call_terminate(ptr %15) #22
  unreachable

ehcleanup7:                                       ; preds = %ehcleanup, %lpad
  %.pn.pn = phi { ptr, i32 } [ %9, %lpad ], [ %.pn, %ehcleanup ]
  invoke void @__gmpz_clear(ptr noundef nonnull %ref.tmp1)
          to label %_ZN4cvc58internal7IntegerD2Ev.exit14 unwind label %terminate.lpad.i.i13

terminate.lpad.i.i13:                             ; preds = %ehcleanup7
  %16 = landingpad { ptr, i32 }
          catch ptr null
  %17 = extractvalue { ptr, i32 } %16, 0
  call void @__clang_call_terminate(ptr %17) #22
  unreachable

_ZN4cvc58internal7IntegerD2Ev.exit14:             ; preds = %ehcleanup7
  resume { ptr, i32 } %.pn.pn
}